(lp0
ccopy_reg
_reconstructor
p1
(ccoveragelink
CoverageLink
p2
c__builtin__
object
p3
Ntp4
Rp5
(dp6
S'status'
p7
S'valid'
p8
sS'statements'
p9
I5583
sS'created'
p10
I1447536295
sS'url'
p11
Vhttp://logs.openstack.org/65/133465/9/check/jenkins-job-builder-coverage/ce162be/cover
p12
sS'missing'
p13
I737
sS'percent'
p14
F87.0
sS'project'
p15
Vjenkins-job-builder
p16
sS'excluded'
p17
I0
sS'type'
p18
Vcheck
p19
sbag1
(g2
g3
Ntp20
Rp21
(dp22
g7
g8
sg9
I7081
sg10
I1447536295
sg11
Vhttp://logs.openstack.org/53/245453/1/check/barbican-coverage/3065bc5/cover
p23
sg13
I577
sg14
F91.0
sg15
Vbarbican
p24
sg17
I72
sS'branches'
p25
I1373
sg18
g19
sS'partial'
p26
I125
sbag1
(g2
g3
Ntp27
Rp28
(dp29
g7
g8
sg9
I22000
sg10
I1447533255
sg11
Vhttp://logs.openstack.org/45/245445/3/check/sahara-coverage/ef6f24a/cover
p30
sg13
I8609
sg14
F57.426
sg15
Vsahara
p31
sg17
I0
sg25
I5714
sg18
Vcheck
p32
sg26
I469
sbag1
(g2
g3
Ntp33
Rp34
(dp35
g7
g8
sg9
I9870
sg10
I1447530992
sg11
Vhttp://logs.openstack.org/83/244383/3/check/murano-coverage/942174d/cover
p36
sg13
I3123
sg14
F66.0
sg15
Vmurano
p37
sg17
I0
sg25
I2732
sg18
Vcheck
p38
sg26
I336
sbag1
(g2
g3
Ntp39
Rp40
(dp41
g7
g8
sg9
I35872
sg10
I1447528499
sg11
Vhttp://logs.openstack.org/6d/6d41bdd2dc8ad1e6c25eac88590840784b6c86c1/post/neutron-coverage/355aba4/cover
p42
sg13
I6738
sg14
F80.0
sg15
Vneutron
p43
sg17
I0
sg25
I9598
sg18
Vpost
p44
sg26
I1064
sbag1
(g2
g3
Ntp45
Rp46
(dp47
g7
g8
sg9
I12458
sg10
I1447518899
sg11
Vhttp://logs.openstack.org/d0/d008563a3c8828cf7b0b13c7bac50b67be614de0/post/rally-coverage/288f608/cover
p48
sg13
I626
sg14
F93.082
sg15
Vrally
p49
sg17
I0
sg25
I3124
sg18
Vpost
p50
sg26
I316
sbag1
(g2
g3
Ntp51
Rp52
(dp53
g7
g8
sg9
I6854
sg10
I1447483199
sg11
Vhttp://logs.openstack.org/4a/4a070903d29aca07a8d19b59bb20818d1c759c44/post/python-keystoneclient-coverage/385dd30/cover
p54
sg13
I760
sg14
F87.0
sg15
Vpython-keystoneclient
p55
sg17
I12
sg25
I1615
sg18
Vpost
p56
sg26
I205
sbag1
(g2
g3
Ntp57
Rp58
(dp59
g7
g8
sg9
I16527
sg10
I1447456047
sg11
Vhttp://logs.openstack.org/c6/c6949c782c9f40418ebc95630478ce558d935be1/post/python-openstackclient-coverage/270407d/cover
p60
sg13
I2608
sg14
F82.0
sg15
Vpython-openstackclient
p61
sg17
I0
sg25
I2029
sg18
Vpost
p62
sg26
I223
sbag1
(g2
g3
Ntp63
Rp64
(dp65
g7
g8
sg9
I17993
sg10
I1447450155
sg11
Vhttp://logs.openstack.org/79/79147fc305f7955f330ad5494eb3e98b9b6ecc9e/post/heat-coverage/5abe199/cover
p66
sg13
I1762
sg14
F88.0
sg15
Vheat
p67
sg17
I0
sg25
I5562
sg18
Vpost
p68
sg26
I626
sbag1
(g2
g3
Ntp69
Rp70
(dp71
g7
g8
sg9
I5934
sg10
I1447441887
sg11
Vhttp://logs.openstack.org/b2/b2ab67d48b103f00ac6075446d868cc4979ee794/post/solum-coverage/724c99d/cover
p72
sg13
I1506
sg14
F71.0
sg15
Vsolum
p73
sg17
I0
sg25
I1020
sg18
Vpost
p74
sg26
I150
sbag1
(g2
g3
Ntp75
Rp76
(dp77
g7
g8
sg9
I12167
sg10
I1447437228
sg11
Vhttp://logs.openstack.org/20/243920/5/check/designate-coverage/59acf55/cover
p78
sg13
I2952
sg14
F74.0
sg15
Vdesignate
p79
sg17
I0
sg25
I2656
sg18
Vcheck
p80
sg26
I406
sbag1
(g2
g3
Ntp81
Rp82
(dp83
g7
g8
sg9
I4886
sg10
I1447431794
sg11
Vhttp://logs.openstack.org/4a/4a3ddce05bac17903fb768a47b042d4bc17fd0d9/post/oslo.messaging-coverage/9f1144a/cover
p84
sg13
I926
sg14
F78.0
sg15
Voslo.messaging
p85
sg17
I0
sg25
I1209
sg18
Vpost
p86
sg26
I190
sbag1
(g2
g3
Ntp87
Rp88
(dp89
g7
g8
sg9
I1237
sg10
I1447374701
sg11
Vhttp://logs.openstack.org/c8/c8a0eca9b48325864c8dc04e903ed78c1ddf28f3/post/os-cloud-config-coverage/7c562c4/cover
p90
sg13
I72
sg14
F91.0
sg15
Vos-cloud-config
p91
sg17
I0
sg25
I260
sg18
Vpost
p92
sg26
I42
sbag1
(g2
g3
Ntp93
Rp94
(dp95
g7
g8
sg9
I2295
sg10
I1447298435
sg11
Vhttp://logs.openstack.org/5a/5aeaf3d57bf8dae3acefe605486b6d8afaeed738/post/python-heatclient-coverage/f5fd2e8/cover
p96
sg13
I217
sg14
F89.56
sg15
Vpython-heatclient
p97
sg17
I0
sg25
I636
sg18
Vpost
p98
sg26
I67
sbag1
(g2
g3
Ntp99
Rp100
(dp101
g7
g8
sg9
I5407
sg10
I1447273300
sg11
Vhttp://logs.openstack.org/64/64cc3c5a3b75750dbdf30bde87e8776b402fc115/post/storyboard-coverage/0231ce1/cover
p102
sg13
I1241
sg14
F74.0
sg15
Vstoryboard
p103
sg17
I0
sg25
I1187
sg18
Vpost
p104
sg26
I219
sbag1
(g2
g3
Ntp105
Rp106
(dp107
g7
g8
sg9
I1734
sg10
I1447273300
sg11
Vhttp://logs.openstack.org/de/de5092015a6719c32d40d39031477782033304ba/post/python-solumclient-coverage/d374a00/cover
p108
sg13
I722
sg14
F54.0
sg15
Vpython-solumclient
p109
sg17
I0
sg25
I456
sg18
g104
sg26
I78
sbag1
(g2
g3
Ntp110
Rp111
(dp112
g7
g8
sg9
I5651
sg10
I1447237775
sg11
Vhttp://logs.openstack.org/b6/b66f5e8dd60c023d6d216c3bbc5ec22d837623c3/post/python-ironicclient-coverage/f0ce467/cover
p113
sg13
I947
sg14
F83.0
sg15
Vpython-ironicclient
p114
sg17
I0
sg18
Vpost
p115
sbag1
(g2
g3
Ntp116
Rp117
(dp118
g7
g8
sg9
I286
sg10
I1445593935
sg11
Vhttp://logs.openstack.org/d5/d559c0c40049b67b8bde5d61de2d45e9935eb3f0/post/oslo.i18n-coverage/868a2cc/cover
p119
sg13
I8
sg14
F94.66
sg15
Voslo.i18n
p120
sg17
I0
sg25
I70
sg18
Vpost
p121
sg26
I11
sbag1
(g2
g3
Ntp122
Rp123
(dp124
g7
g8
sg9
I348
sg10
I1446753866
sg11
Vhttp://logs.openstack.org/e0/e01418018fbba2d47fdd1b921d27566037e547f4/post/oslo.concurrency-coverage/c9fc969/cover
p125
sg13
I54
sg14
F83.52
sg15
Voslo.concurrency
p126
sg17
I0
sg25
I89
sg18
Vpost
p127
sg26
I12
sbag1
(g2
g3
Ntp128
Rp129
(dp130
g7
g8
sg9
I2159
sg10
I1446800739
sg11
Vhttp://logs.openstack.org/2f/2f318fd5ce87116652bdb56d239f6a08368e8e8e/post/swift3-coverage/e136dff/cover
p131
sg13
I135
sg14
F93.0
sg15
Vswift3
p132
sg17
I0
sg25
I647
sg18
Vpost
p133
sg26
I54
sbag1
(g2
g3
Ntp134
Rp135
(dp136
g7
g8
sg9
I2025
sg10
I1447220389
sg11
Vhttp://logs.openstack.org/d3/d34f97aa524ff554513690d2447f35f7fc07ba42/post/heat-translator-coverage/114b60b/cover
p137
sg13
I223
sg14
F86.0
sg15
Vheat-translator
p138
sg17
I0
sg25
I564
sg18
Vpost
p139
sg26
I71
sbag1
(g2
g3
Ntp140
Rp141
(dp142
g7
g8
sg9
I805
sg10
I1447382163
sg11
Vhttp://logs.openstack.org/78/78eba41febc747ce1c6a14c016a788d689745bc8/post/oslo-incubator-coverage/080b821/cover
p143
sg13
I94
sg14
F85.0
sg15
Voslo-incubator
p144
sg17
I0
sg25
I296
sg18
Vpost
p145
sg26
I44
sbag1
(g2
g3
Ntp146
Rp147
(dp148
g7
g8
sg9
I371
sg10
I1447428087
sg11
Vhttp://logs.openstack.org/08/244808/2/check/grafyaml-coverage/bc62dbf/cover
p149
sg13
I25
sg14
F92.0
sg15
Vgrafyaml
p150
sg17
I0
sg25
I68
sg18
Vcheck
p151
sg26
I8
sbag1
(g2
g3
Ntp152
Rp153
(dp154
g7
g8
sg9
I4106
sg10
I1447434318
sg11
Vhttp://logs.openstack.org/20/245220/1/check/nodepool-coverage/70d9d31/cover
p155
sg13
I814
sg14
F80.0
sg15
Vnodepool
p156
sg17
I0
sg18
Vcheck
p157
sbag1
(g2
g3
Ntp158
Rp159
(dp160
g7
g8
sg9
I29886
sg10
I1447441767
sg11
Vhttp://logs.openstack.org/e0/e0e655206388fb0965c94106df96f4c470eb598f/post/tempest-coverage/ed017a4/cover
p161
sg13
I20199
sg14
F30.0
sg15
Vtempest
p162
sg17
I0
sg25
I4666
sg18
Vpost
p163
sg26
I181
sbag1
(g2
g3
Ntp164
Rp165
(dp166
g7
g8
sg9
I2870
sg10
I1447450016
sg11
Vhttp://logs.openstack.org/86/86296ea7f0c6d3e5f95e838817bfcc517fbb4679/post/neutron-vpnaas-coverage/58dcd04/cover
p167
sg13
I486
sg14
F81.0
sg15
Vneutron-vpnaas
p168
sg17
I0
sg25
I609
sg18
Vpost
p169
sg26
I76
sbag1
(g2
g3
Ntp170
Rp171
(dp172
g7
g8
sg9
I2024
sg10
I1447465443
sg11
Vhttp://logs.openstack.org/32/245332/5/check/cue-coverage/b94456c/cover
p173
sg13
I137
sg14
F90.0
sg15
Vcue
p174
sg17
I18
sg25
I401
sg18
Vcheck
p175
sg26
I54
sbag1
(g2
g3
Ntp176
Rp177
(dp178
g7
g8
sg9
I6718
sg10
I1447474605
sg11
Vhttp://logs.openstack.org/47/47b519106a6a420474b33332415929e17a5e554e/post/python-manilaclient-coverage/297e025/cover
p179
sg13
I2050
sg14
F69.0
sg15
Vpython-manilaclient
p180
sg17
I0
sg18
Vpost
p181
sbag1
(g2
g3
Ntp182
Rp183
(dp184
g7
g8
sg9
I18534
sg10
I1447518251
sg11
Vhttp://logs.openstack.org/29/245429/1/check/magnum-coverage/5011a40/cover
p185
sg13
I9867
sg14
F41.0
sg15
Vmagnum
p186
sg17
I2
sg25
I5555
sg18
Vcheck
p187
sg26
I188
sbag1
(g2
g3
Ntp188
Rp189
(dp190
g7
g8
sg9
I24702
sg10
I1447521857
sg11
Vhttp://logs.openstack.org/50/238850/12/check/manila-coverage/d4b559a/cover
p191
sg13
I2739
sg14
F87.04
sg15
Vmanila
p192
sg17
I0
sg25
I6302
sg18
Vcheck
p193
sg26
I664
sbag1
(g2
g3
Ntp194
Rp195
(dp196
g7
g8
sg9
I4885
sg10
I1447522259
sg11
Vhttp://logs.openstack.org/33/178833/12/check/dev-zuul-coverage/281c6e7/cover
p197
sg13
I1003
sg14
F79.0
sg15
Vdev-zuul
p198
sg17
I0
sg18
Vcheck
p199
sbag1
(g2
g3
Ntp200
Rp201
(dp202
g7
g8
sg9
I16784
sg10
I1447528246
sg11
Vhttp://logs.openstack.org/a0/a07588a7f1c4c236d3da7c8c42d2d723aaffdd61/post/keystone-coverage/07fa55d/cover
p203
sg13
I1476
sg14
F90.0
sg15
Vkeystone
p204
sg17
I195
sg25
I4108
sg18
Vpost
p205
sg26
I428
sbag1
(g2
g3
Ntp206
Rp207
(dp208
g7
g8
sg9
I6252
sg10
I1447535169
sg11
Vhttp://logs.openstack.org/ac/ac56244299a7c9dbe16ce67d9be47db55be2367b/post/python-glanceclient-coverage/fdfda08/cover
p209
sg13
I641
sg14
F88.0
sg15
Vpython-glanceclient
p210
sg17
I0
sg25
I933
sg18
Vpost
p211
sg26
I119
sbag1
(g2
g3
Ntp212
Rp213
(dp214
g7
g8
sg9
I2922
sg10
I1447535675
sg11
Vhttp://logs.openstack.org/46/243846/10/check/shade-coverage/bb0cf45/cover
p215
sg13
I715
sg14
F71.0
sg15
Vshade
p216
sg17
I0
sg25
I965
sg18
Vcheck
p217
sg26
I203
sba.